; Function Attrs: mustprogress uwtable
define void @_ZN9grpc_core14ReclaimerQueue6Handle6OrphanEv(ptr noundef nonnull align 8 dereferenceable(24) %this) unnamed_addr #4 align 2 personality ptr @__gxx_personality_v0 {
entry:
  %agg.tmp = alloca %"class.std::optional", align 8
  %sweep_ = getelementptr inbounds i8, ptr %this, i64 16
  %0 = atomicrmw xchg ptr %sweep_, i64 0 acq_rel, align 8
  %tobool.not = icmp eq i64 %0, 0
  br i1 %tobool.not, label %if.end, label %if.then

if.then:                                          ; preds = %entry
  %atomic-temp.i.0.i = inttoptr i64 %0 to ptr
  %_M_engaged.i.i.i.i.i = getelementptr inbounds i8, ptr %agg.tmp, i64 40
  store i8 0, ptr %_M_engaged.i.i.i.i.i, align 8
  %vtable = load ptr, ptr %atomic-temp.i.0.i, align 8
  %1 = load ptr, ptr %vtable, align 8
  invoke void %1(ptr noundef nonnull align 8 dereferenceable(24) %atomic-temp.i.0.i, ptr noundef nonnull %agg.tmp)
          to label %invoke.cont unwind label %lpad

invoke.cont:                                      ; preds = %if.then
  %2 = load i8, ptr %_M_engaged.i.i.i.i.i, align 8
  %3 = and i8 %2, 1
  %tobool.not.i.i.i.i = icmp eq i8 %3, 0
  br i1 %tobool.not.i.i.i.i, label %if.end, label %if.then.i.i.i.i

if.then.i.i.i.i:                                  ; preds = %invoke.cont
  store i8 0, ptr %_M_engaged.i.i.i.i.i, align 8
  call void @_ZN9grpc_core16ReclamationSweepD1Ev(ptr noundef nonnull align 8 dereferenceable(40) %agg.tmp) #25
  br label %if.end

lpad:                                             ; preds = %if.then
  %4 = landingpad { ptr, i32 }
          cleanup
  %5 = load i8, ptr %_M_engaged.i.i.i.i.i, align 8
  %6 = and i8 %5, 1
  %tobool.not.i.i.i.i3 = icmp eq i8 %6, 0
  br i1 %tobool.not.i.i.i.i3, label %_ZNSt8optionalIN9grpc_core16ReclamationSweepEED2Ev.exit5, label %if.then.i.i.i.i4

if.then.i.i.i.i4:                                 ; preds = %lpad
  store i8 0, ptr %_M_engaged.i.i.i.i.i, align 8
  call void @_ZN9grpc_core16ReclamationSweepD1Ev(ptr noundef nonnull align 8 dereferenceable(40) %agg.tmp) #25
  br label %_ZNSt8optionalIN9grpc_core16ReclamationSweepEED2Ev.exit5

_ZNSt8optionalIN9grpc_core16ReclamationSweepEED2Ev.exit5: ; preds = %lpad, %if.then.i.i.i.i4
  resume { ptr, i32 } %4

if.end:                                           ; preds = %if.then.i.i.i.i, %invoke.cont, %entry
  %refs_.i = getelementptr inbounds i8, ptr %this, i64 8
  %7 = atomicrmw sub ptr %refs_.i, i64 1 acq_rel, align 8
  %cmp.i.i = icmp eq i64 %7, 1
  br i1 %cmp.i.i, label %if.then.i, label %_ZN9grpc_core20InternallyRefCountedINS_14ReclaimerQueue6HandleENS_11UnrefDeleteEE5UnrefEv.exit

if.then.i:                                        ; preds = %if.end
  %vtable.i.i = load ptr, ptr %this, align 8
  %vfn.i.i = getelementptr inbounds i8, ptr %vtable.i.i, i64 16
  %8 = load ptr, ptr %vfn.i.i, align 8
  call void %8(ptr noundef nonnull align 8 dereferenceable(24) %this) #25
  br label %_ZN9grpc_core20InternallyRefCountedINS_14ReclaimerQueue6HandleENS_11UnrefDeleteEE5UnrefEv.exit

_ZN9grpc_core20InternallyRefCountedINS_14ReclaimerQueue6HandleENS_11UnrefDeleteEE5UnrefEv.exit: ; preds = %if.end, %if.then.i
  ret void
}